target datalayout = "e-m:e-p270:32:32-p271:32:32-p272:64:64-i64:64-i128:128-f80:128-n8:16:32:64-S128"
target triple = "x86_64-pc-linux-gnu"

%struct.Ivy_Obj_t_ = type { i32, i32, i32, i32, ptr, ptr, ptr, ptr, ptr, ptr, ptr, ptr }

; Function Attrs: inlinehint nounwind uwtable
define internal ptr @Ivy_Regular(ptr noundef %0) #3 {
  %2 = alloca ptr, align 8
  store ptr %0, ptr %2, align 8, !tbaa !19
  %3 = load ptr, ptr %2, align 8, !tbaa !19
  %4 = ptrtoint ptr %3 to i64
  %5 = and i64 %4, -2
  %6 = inttoptr i64 %5 to ptr
  ret ptr %6
}

; Function Attrs: nounwind uwtable
define i32 @Ivy_NodeCompareLevelsDecrease(ptr noundef %0, ptr noundef %1) #0 {
  %3 = alloca i32, align 4
  %4 = alloca ptr, align 8
  %5 = alloca ptr, align 8
  %6 = alloca i32, align 4
  %7 = alloca i32, align 4
  store ptr %0, ptr %4, align 8, !tbaa !40
  store ptr %1, ptr %5, align 8, !tbaa !40
  call void @llvm.lifetime.start.p0(i64 4, ptr %6) #7
  %8 = load ptr, ptr %4, align 8, !tbaa !40
  %9 = load ptr, ptr %8, align 8, !tbaa !19
  %10 = call ptr @Ivy_Regular(ptr noundef %9)
  %11 = getelementptr inbounds nuw %struct.Ivy_Obj_t_, ptr %10, i32 0, i32 2
  %12 = load i32, ptr %11, align 8
  %13 = lshr i32 %12, 11
  %14 = load ptr, ptr %5, align 8, !tbaa !40
  %15 = load ptr, ptr %14, align 8, !tbaa !19
  %16 = call ptr @Ivy_Regular(ptr noundef %15)
  %17 = getelementptr inbounds nuw %struct.Ivy_Obj_t_, ptr %16, i32 0, i32 2
  %18 = load i32, ptr %17, align 8
  %19 = lshr i32 %18, 11
  %20 = sub nsw i32 %13, %19
  store i32 %20, ptr %6, align 4, !tbaa !8
  %21 = load i32, ptr %6, align 4, !tbaa !8
  %22 = icmp sgt i32 %21, 0
  br i1 %22, label %23, label %24

23:                                               ; preds = %2
  store i32 -1, ptr %3, align 4
  store i32 1, ptr %7, align 4
  br label %48

24:                                               ; preds = %2
  %25 = load i32, ptr %6, align 4, !tbaa !8
  %26 = icmp slt i32 %25, 0
  br i1 %26, label %27, label %28

27:                                               ; preds = %24
  store i32 1, ptr %3, align 4
  store i32 1, ptr %7, align 4
  br label %48

28:                                               ; preds = %24
  %29 = load ptr, ptr %4, align 8, !tbaa !40
  %30 = load ptr, ptr %29, align 8, !tbaa !19
  %31 = call ptr @Ivy_Regular(ptr noundef %30)
  %32 = getelementptr inbounds nuw %struct.Ivy_Obj_t_, ptr %31, i32 0, i32 0
  %33 = load i32, ptr %32, align 8, !tbaa !26
  %34 = load ptr, ptr %5, align 8, !tbaa !40
  %35 = load ptr, ptr %34, align 8, !tbaa !19
  %36 = call ptr @Ivy_Regular(ptr noundef %35)
  %37 = getelementptr inbounds nuw %struct.Ivy_Obj_t_, ptr %36, i32 0, i32 0
  %38 = load i32, ptr %37, align 8, !tbaa !26
  %39 = sub nsw i32 %33, %38
  store i32 %39, ptr %6, align 4, !tbaa !8
  %40 = load i32, ptr %6, align 4, !tbaa !8
  %41 = icmp sgt i32 %40, 0
  br i1 %41, label %42, label %43

42:                                               ; preds = %28
  store i32 -1, ptr %3, align 4
  store i32 1, ptr %7, align 4
  br label %48

43:                                               ; preds = %28
  %44 = load i32, ptr %6, align 4, !tbaa !8
  %45 = icmp slt i32 %44, 0
  br i1 %45, label %46, label %47

46:                                               ; preds = %43
  store i32 1, ptr %3, align 4
  store i32 1, ptr %7, align 4
  br label %48

47:                                               ; preds = %43
  store i32 0, ptr %3, align 4
  store i32 1, ptr %7, align 4
  br label %48

48:                                               ; preds = %47, %46, %42, %27, %23
  call void @llvm.lifetime.end.p0(i64 4, ptr %6) #7
  %49 = load i32, ptr %3, align 4
  ret i32 %49
}